; Function Attrs: mustprogress uwtable
define noundef zeroext i1 @_ZN2cv6detail8tracking12TrackerModel24setTrackerStateEstimatorENS_3PtrINS1_21TrackerStateEstimatorEEE(ptr noundef nonnull align 8 captures(none) dereferenceable(100) %0, ptr noundef readonly captures(none) %1) local_unnamed_addr #5 align 2 personality ptr @__gxx_personality_v0 {
  %3 = getelementptr inbounds nuw i8, ptr %0, i64 32
  %4 = load ptr, ptr %3, align 8, !tbaa !49
  %.not = icmp eq ptr %4, null
  br i1 %.not, label %5, label %_ZN2cv3PtrINS_6detail8tracking21TrackerStateEstimatorEEaSERKS4_.exit

5:                                                ; preds = %2
  %6 = load ptr, ptr %1, align 8, !tbaa !49
  store ptr %6, ptr %3, align 8, !tbaa !49
  %7 = getelementptr inbounds nuw i8, ptr %0, i64 40
  %8 = getelementptr inbounds nuw i8, ptr %1, i64 8
  %9 = load ptr, ptr %8, align 8, !tbaa !36
  %10 = load ptr, ptr %7, align 8, !tbaa !36
  %.not.i.i.i.i = icmp eq ptr %9, %10
  br i1 %.not.i.i.i.i, label %_ZN2cv3PtrINS_6detail8tracking21TrackerStateEstimatorEEaSERKS4_.exit, label %11

11:                                               ; preds = %5
  %.not7.i.i.i.i = icmp eq ptr %9, null
  br i1 %.not7.i.i.i.i, label %_ZNSt16_Sp_counted_baseILN9__gnu_cxx12_Lock_policyE2EE15_M_add_ref_copyEv.exit.i.i.i.i, label %12

12:                                               ; preds = %11
  %13 = getelementptr inbounds nuw i8, ptr %9, i64 8
  %14 = load i8, ptr @__libc_single_threaded, align 1, !tbaa !40
  %.not.i.i.i.i.i = icmp eq i8 %14, 0
  br i1 %.not.i.i.i.i.i, label %18, label %15

15:                                               ; preds = %12
  %16 = load i32, ptr %13, align 4, !tbaa !41
  %17 = add nsw i32 %16, 1
  store i32 %17, ptr %13, align 4, !tbaa !41
  br label %_ZNSt16_Sp_counted_baseILN9__gnu_cxx12_Lock_policyE2EE15_M_add_ref_copyEv.exit.i.i.i.i

18:                                               ; preds = %12
  %19 = atomicrmw volatile add ptr %13, i32 1 acq_rel, align 4
  %.pr.pre.i.i.i.i = load ptr, ptr %7, align 8, !tbaa !36
  br label %_ZNSt16_Sp_counted_baseILN9__gnu_cxx12_Lock_policyE2EE15_M_add_ref_copyEv.exit.i.i.i.i

_ZNSt16_Sp_counted_baseILN9__gnu_cxx12_Lock_policyE2EE15_M_add_ref_copyEv.exit.i.i.i.i: ; preds = %18, %15, %11
  %20 = phi ptr [ %10, %11 ], [ %10, %15 ], [ %.pr.pre.i.i.i.i, %18 ]
  %.not8.i.i.i.i = icmp eq ptr %20, null
  br i1 %.not8.i.i.i.i, label %_ZNSt16_Sp_counted_baseILN9__gnu_cxx12_Lock_policyE2EE10_M_releaseEv.exit.i.i.i.i, label %21

21:                                               ; preds = %_ZNSt16_Sp_counted_baseILN9__gnu_cxx12_Lock_policyE2EE15_M_add_ref_copyEv.exit.i.i.i.i
  %22 = getelementptr inbounds nuw i8, ptr %20, i64 8
  %23 = load atomic i64, ptr %22 acquire, align 8
  %24 = icmp eq i64 %23, 4294967297
  %25 = trunc i64 %23 to i32
  br i1 %24, label %26, label %34

26:                                               ; preds = %21
  store i32 0, ptr %22, align 8, !tbaa !37
  %27 = getelementptr inbounds nuw i8, ptr %20, i64 12
  store i32 0, ptr %27, align 4, !tbaa !39
  %28 = load ptr, ptr %20, align 8, !tbaa !3
  %29 = getelementptr inbounds nuw i8, ptr %28, i64 16
  %30 = load ptr, ptr %29, align 8
  tail call void %30(ptr noundef nonnull align 8 dereferenceable(16) %20) #22
  %31 = load ptr, ptr %20, align 8, !tbaa !3
  %32 = getelementptr inbounds nuw i8, ptr %31, i64 24
  %33 = load ptr, ptr %32, align 8
  tail call void %33(ptr noundef nonnull align 8 dereferenceable(16) %20) #22
  br label %_ZNSt16_Sp_counted_baseILN9__gnu_cxx12_Lock_policyE2EE10_M_releaseEv.exit.i.i.i.i

34:                                               ; preds = %21
  %35 = load i8, ptr @__libc_single_threaded, align 1, !tbaa !40
  %.not.i9.i.i.i.i = icmp eq i8 %35, 0
  br i1 %.not.i9.i.i.i.i, label %38, label %36

36:                                               ; preds = %34
  %37 = add nsw i32 %25, -1
  store i32 %37, ptr %22, align 4, !tbaa !41
  br label %_ZN9__gnu_cxx27__exchange_and_add_dispatchEPii.exit.i.i.i.i.i

38:                                               ; preds = %34
  %39 = atomicrmw volatile add ptr %22, i32 -1 acq_rel, align 4
  br label %_ZN9__gnu_cxx27__exchange_and_add_dispatchEPii.exit.i.i.i.i.i

_ZN9__gnu_cxx27__exchange_and_add_dispatchEPii.exit.i.i.i.i.i: ; preds = %38, %36
  %.0.i.i.i.i.i.i = phi i32 [ %25, %36 ], [ %39, %38 ]
  %40 = icmp eq i32 %.0.i.i.i.i.i.i, 1
  br i1 %40, label %41, label %_ZNSt16_Sp_counted_baseILN9__gnu_cxx12_Lock_policyE2EE10_M_releaseEv.exit.i.i.i.i, !prof !42

41:                                               ; preds = %_ZN9__gnu_cxx27__exchange_and_add_dispatchEPii.exit.i.i.i.i.i
  tail call void @_ZNSt16_Sp_counted_baseILN9__gnu_cxx12_Lock_policyE2EE24_M_release_last_use_coldEv(ptr noundef nonnull align 8 dereferenceable(16) %20) #22
  br label %_ZNSt16_Sp_counted_baseILN9__gnu_cxx12_Lock_policyE2EE10_M_releaseEv.exit.i.i.i.i

_ZNSt16_Sp_counted_baseILN9__gnu_cxx12_Lock_policyE2EE10_M_releaseEv.exit.i.i.i.i: ; preds = %41, %_ZN9__gnu_cxx27__exchange_and_add_dispatchEPii.exit.i.i.i.i.i, %26, %_ZNSt16_Sp_counted_baseILN9__gnu_cxx12_Lock_policyE2EE15_M_add_ref_copyEv.exit.i.i.i.i
  store ptr %9, ptr %7, align 8, !tbaa !36
  br label %_ZN2cv3PtrINS_6detail8tracking21TrackerStateEstimatorEEaSERKS4_.exit

_ZN2cv3PtrINS_6detail8tracking21TrackerStateEstimatorEEaSERKS4_.exit: ; preds = %_ZNSt16_Sp_counted_baseILN9__gnu_cxx12_Lock_policyE2EE10_M_releaseEv.exit.i.i.i.i, %5, %2
  ret i1 %.not
}